target datalayout = "e-m:e-p270:32:32-p271:32:32-p272:64:64-i64:64-i128:128-f80:128-n8:16:32:64-S128"
target triple = "x86_64-pc-linux-gnu"

%struct.lean_object = type { i32, i32 }

; Function Attrs: alwaysinline nounwind uwtable
define internal void @lean_dec_ref(ptr noundef %0) #3 {
  %2 = alloca ptr, align 8
  store ptr %0, ptr %2, align 8, !tbaa !9
  %3 = load ptr, ptr %2, align 8, !tbaa !9
  %4 = getelementptr inbounds nuw %struct.lean_object, ptr %3, i32 0, i32 0
  %5 = load i32, ptr %4, align 4, !tbaa !15
  %6 = icmp sgt i32 %5, 1
  %7 = zext i1 %6 to i32
  %8 = sext i32 %7 to i64
  %9 = call i64 @llvm.expect.i64(i64 %8, i64 1)
  %10 = icmp ne i64 %9, 0
  br i1 %10, label %11, label %16

11:                                               ; preds = %1
  %12 = load ptr, ptr %2, align 8, !tbaa !9
  %13 = getelementptr inbounds nuw %struct.lean_object, ptr %12, i32 0, i32 0
  %14 = load i32, ptr %13, align 4, !tbaa !15
  %15 = add i32 %14, -1
  store i32 %15, ptr %13, align 4, !tbaa !15
  br label %24

16:                                               ; preds = %1
  %17 = load ptr, ptr %2, align 8, !tbaa !9
  %18 = getelementptr inbounds nuw %struct.lean_object, ptr %17, i32 0, i32 0
  %19 = load i32, ptr %18, align 4, !tbaa !15
  %20 = icmp ne i32 %19, 0
  br i1 %20, label %21, label %23

21:                                               ; preds = %16
  %22 = load ptr, ptr %2, align 8, !tbaa !9
  call void @lean_dec_ref_cold(ptr noundef %22)
  br label %23

23:                                               ; preds = %21, %16
  br label %24

24:                                               ; preds = %23, %11
  ret void
}

; Function Attrs: inlinehint nounwind uwtable
define internal zeroext i8 @lean_ptr_tag(ptr noundef %0) #2 {
  %2 = alloca ptr, align 8
  store ptr %0, ptr %2, align 8, !tbaa !9
  %3 = load ptr, ptr %2, align 8, !tbaa !9
  %4 = getelementptr inbounds nuw %struct.lean_object, ptr %3, i32 0, i32 1
  %5 = load i32, ptr %4, align 4
  %6 = lshr i32 %5, 24
  %7 = trunc i32 %6 to i8
  ret i8 %7
}

; Function Attrs: inlinehint nounwind uwtable
define internal i64 @lean_unbox(ptr noundef %0) #2 {
  %2 = alloca ptr, align 8
  store ptr %0, ptr %2, align 8, !tbaa !9
  %3 = load ptr, ptr %2, align 8, !tbaa !9
  %4 = ptrtoint ptr %3 to i64
  %5 = lshr i64 %4, 1
  ret i64 %5
}

; Function Attrs: alwaysinline nounwind uwtable
define internal zeroext i1 @lean_is_scalar(ptr noundef %0) #3 {
  %2 = alloca ptr, align 8
  store ptr %0, ptr %2, align 8, !tbaa !9
  %3 = load ptr, ptr %2, align 8, !tbaa !9
  %4 = ptrtoint ptr %3 to i64
  %5 = and i64 %4, 1
  %6 = icmp eq i64 %5, 1
  ret i1 %6
}

; Function Attrs: alwaysinline nounwind uwtable
define internal void @lean_dec(ptr noundef %0) #3 {
  %2 = alloca ptr, align 8
  store ptr %0, ptr %2, align 8, !tbaa !9
  %3 = load ptr, ptr %2, align 8, !tbaa !9
  %4 = call zeroext i1 @lean_is_scalar(ptr noundef %3)
  br i1 %4, label %7, label %5

5:                                                ; preds = %1
  %6 = load ptr, ptr %2, align 8, !tbaa !9
  call void @lean_dec_ref(ptr noundef %6)
  br label %7

7:                                                ; preds = %5, %1
  ret void
}

; Function Attrs: inlinehint nounwind uwtable
define internal i32 @lean_obj_tag(ptr noundef %0) #2 {
  %2 = alloca i32, align 4
  %3 = alloca ptr, align 8
  store ptr %0, ptr %3, align 8, !tbaa !9
  %4 = load ptr, ptr %3, align 8, !tbaa !9
  %5 = call zeroext i1 @lean_is_scalar(ptr noundef %4)
  br i1 %5, label %6, label %10

6:                                                ; preds = %1
  %7 = load ptr, ptr %3, align 8, !tbaa !9
  %8 = call i64 @lean_unbox(ptr noundef %7)
  %9 = trunc i64 %8 to i32
  store i32 %9, ptr %2, align 4
  br label %14

10:                                               ; preds = %1
  %11 = load ptr, ptr %3, align 8, !tbaa !9
  %12 = call zeroext i8 @lean_ptr_tag(ptr noundef %11)
  %13 = zext i8 %12 to i32
  store i32 %13, ptr %2, align 4
  br label %14

14:                                               ; preds = %10, %6
  %15 = load i32, ptr %2, align 4
  ret i32 %15
}

; Function Attrs: inlinehint nounwind uwtable
define internal ptr @lean_box(i64 noundef %0) #2 {
  %2 = alloca i64, align 8
  store i64 %0, ptr %2, align 8, !tbaa !7
  %3 = load i64, ptr %2, align 8, !tbaa !7
  %4 = shl i64 %3, 1
  %5 = or i64 %4, 1
  %6 = inttoptr i64 %5 to ptr
  ret ptr %6
}

; Function Attrs: nounwind uwtable
define zeroext i8 @l_Lean_Meta_TransparencyMode_lt(i8 noundef zeroext %0, i8 noundef zeroext %1) #0 {
  %3 = alloca i8, align 1
  %4 = alloca i8, align 1
  %5 = alloca i8, align 1
  %6 = alloca i8, align 1
  %7 = alloca ptr, align 8
  %8 = alloca i8, align 1
  %9 = alloca i32, align 4
  %10 = alloca i8, align 1
  %11 = alloca ptr, align 8
  %12 = alloca i8, align 1
  %13 = alloca i8, align 1
  %14 = alloca ptr, align 8
  %15 = alloca i8, align 1
  %16 = alloca i8, align 1
  %17 = alloca i8, align 1
  store i8 %0, ptr %4, align 1, !tbaa !4
  store i8 %1, ptr %5, align 1, !tbaa !4
  br label %18

18:                                               ; preds = %2
  %19 = load i8, ptr %4, align 1, !tbaa !4
  %20 = zext i8 %19 to i32
  switch i32 %20, label %49 [
    i32 0, label %21
    i32 1, label %23
    i32 2, label %36
  ]

21:                                               ; preds = %18
  call void @llvm.lifetime.start.p0(i64 1, ptr %6) #7
  store i8 0, ptr %6, align 1, !tbaa !4
  %22 = load i8, ptr %6, align 1, !tbaa !4
  store i8 %22, ptr %3, align 1
  call void @llvm.lifetime.end.p0(i64 1, ptr %6) #7
  br label %63

23:                                               ; preds = %18
  call void @llvm.lifetime.start.p0(i64 8, ptr %7) #7
  %24 = load i8, ptr %5, align 1, !tbaa !4
  %25 = zext i8 %24 to i64
  %26 = call ptr @lean_box(i64 noundef %25)
  store ptr %26, ptr %7, align 8, !tbaa !9
  %27 = load ptr, ptr %7, align 8, !tbaa !9
  %28 = call i32 @lean_obj_tag(ptr noundef %27)
  %29 = icmp eq i32 %28, 0
  br i1 %29, label %30, label %32

30:                                               ; preds = %23
  call void @llvm.lifetime.start.p0(i64 1, ptr %8) #7
  store i8 1, ptr %8, align 1, !tbaa !4
  %31 = load i8, ptr %8, align 1, !tbaa !4
  store i8 %31, ptr %3, align 1
  store i32 1, ptr %9, align 4
  call void @llvm.lifetime.end.p0(i64 1, ptr %8) #7
  br label %35

32:                                               ; preds = %23
  call void @llvm.lifetime.start.p0(i64 1, ptr %10) #7
  %33 = load ptr, ptr %7, align 8, !tbaa !9
  call void @lean_dec(ptr noundef %33)
  store i8 0, ptr %10, align 1, !tbaa !4
  %34 = load i8, ptr %10, align 1, !tbaa !4
  store i8 %34, ptr %3, align 1
  store i32 1, ptr %9, align 4
  call void @llvm.lifetime.end.p0(i64 1, ptr %10) #7
  br label %35

35:                                               ; preds = %32, %30
  call void @llvm.lifetime.end.p0(i64 8, ptr %7) #7
  br label %63

36:                                               ; preds = %18
  call void @llvm.lifetime.start.p0(i64 8, ptr %11) #7
  %37 = load i8, ptr %5, align 1, !tbaa !4
  %38 = zext i8 %37 to i64
  %39 = call ptr @lean_box(i64 noundef %38)
  store ptr %39, ptr %11, align 8, !tbaa !9
  %40 = load ptr, ptr %11, align 8, !tbaa !9
  %41 = call i32 @lean_obj_tag(ptr noundef %40)
  %42 = icmp eq i32 %41, 2
  br i1 %42, label %43, label %45

43:                                               ; preds = %36
  call void @llvm.lifetime.start.p0(i64 1, ptr %12) #7
  store i8 0, ptr %12, align 1, !tbaa !4
  %44 = load i8, ptr %12, align 1, !tbaa !4
  store i8 %44, ptr %3, align 1
  store i32 1, ptr %9, align 4
  call void @llvm.lifetime.end.p0(i64 1, ptr %12) #7
  br label %48

45:                                               ; preds = %36
  call void @llvm.lifetime.start.p0(i64 1, ptr %13) #7
  %46 = load ptr, ptr %11, align 8, !tbaa !9
  call void @lean_dec(ptr noundef %46)
  store i8 1, ptr %13, align 1, !tbaa !4
  %47 = load i8, ptr %13, align 1, !tbaa !4
  store i8 %47, ptr %3, align 1
  store i32 1, ptr %9, align 4
  call void @llvm.lifetime.end.p0(i64 1, ptr %13) #7
  br label %48

48:                                               ; preds = %45, %43
  call void @llvm.lifetime.end.p0(i64 8, ptr %11) #7
  br label %63

49:                                               ; preds = %18
  call void @llvm.lifetime.start.p0(i64 8, ptr %14) #7
  %50 = load i8, ptr %5, align 1, !tbaa !4
  %51 = zext i8 %50 to i64
  %52 = call ptr @lean_box(i64 noundef %51)
  store ptr %52, ptr %14, align 8, !tbaa !9
  %53 = load ptr, ptr %14, align 8, !tbaa !9
  %54 = call i32 @lean_obj_tag(ptr noundef %53)
  switch i32 %54, label %59 [
    i32 2, label %55
    i32 3, label %57
  ]

55:                                               ; preds = %49
  call void @llvm.lifetime.start.p0(i64 1, ptr %15) #7
  store i8 0, ptr %15, align 1, !tbaa !4
  %56 = load i8, ptr %15, align 1, !tbaa !4
  store i8 %56, ptr %3, align 1
  store i32 1, ptr %9, align 4
  call void @llvm.lifetime.end.p0(i64 1, ptr %15) #7
  br label %62

57:                                               ; preds = %49
  call void @llvm.lifetime.start.p0(i64 1, ptr %16) #7
  store i8 0, ptr %16, align 1, !tbaa !4
  %58 = load i8, ptr %16, align 1, !tbaa !4
  store i8 %58, ptr %3, align 1
  store i32 1, ptr %9, align 4
  call void @llvm.lifetime.end.p0(i64 1, ptr %16) #7
  br label %62

59:                                               ; preds = %49
  call void @llvm.lifetime.start.p0(i64 1, ptr %17) #7
  %60 = load ptr, ptr %14, align 8, !tbaa !9
  call void @lean_dec(ptr noundef %60)
  store i8 1, ptr %17, align 1, !tbaa !4
  %61 = load i8, ptr %17, align 1, !tbaa !4
  store i8 %61, ptr %3, align 1
  store i32 1, ptr %9, align 4
  call void @llvm.lifetime.end.p0(i64 1, ptr %17) #7
  br label %62

62:                                               ; preds = %59, %57, %55
  call void @llvm.lifetime.end.p0(i64 8, ptr %14) #7
  br label %63

63:                                               ; preds = %62, %48, %35, %21
  %64 = load i8, ptr %3, align 1
  ret i8 %64
}