; Function Attrs: mustprogress nofree norecurse nosync nounwind willreturn memory(none) uwtable
define zeroext range(i8 0, 2) i8 @l_Lean_Meta_TransparencyMode_lt(i8 noundef zeroext %0, i8 noundef zeroext %1) local_unnamed_addr #0 {
  switch i8 %0, label %7 [
    i8 0, label %lean_dec.exit19
    i8 1, label %3
    i8 2, label %5
  ]

3:                                                ; preds = %2
  %4 = icmp eq i8 %1, 0
  br label %lean_dec.exit19

5:                                                ; preds = %2
  %6 = icmp ne i8 %1, 2
  br label %lean_dec.exit19

7:                                                ; preds = %2
  %8 = and i8 %1, -2
  %switch = icmp ne i8 %8, 2
  br label %lean_dec.exit19

lean_dec.exit19:                                  ; preds = %7, %5, %3, %2
  %.0.shrunk = phi i1 [ false, %2 ], [ %4, %3 ], [ %6, %5 ], [ %switch, %7 ]
  %.0 = zext i1 %.0.shrunk to i8
  ret i8 %.0
}